target datalayout = "e-m:e-p270:32:32-p271:32:32-p272:64:64-i64:64-i128:128-f80:128-n8:16:32:64-S128"
target triple = "x86_64-pc-linux-gnu"

%struct.UCHARBUF = type { ptr, ptr, ptr, i32, i32, i32, ptr, ptr, i8, i8 }

@stderr = external global ptr, align 8
@.str.1 = private unnamed_addr constant [23 x i8] c"Bad escape: [%c%s]...\0A\00", align 1

; Function Attrs: inlinehint mustprogress nounwind uwtable
define internal noundef signext i8 @_ZL9U_FAILURE10UErrorCode(i32 noundef %0) #4 {
  %2 = alloca i32, align 4
  store i32 %0, ptr %2, align 4, !tbaa !24
  %3 = load i32, ptr %2, align 4, !tbaa !24
  %4 = icmp sgt i32 %3, 0
  %5 = zext i1 %4 to i8
  ret i8 %5
}

; Function Attrs: mustprogress uwtable
define i32 @ucbuf_getcx32(ptr noundef %0, ptr noundef %1) #0 {
  %3 = alloca i32, align 4
  %4 = alloca ptr, align 8
  %5 = alloca ptr, align 8
  %6 = alloca i32, align 4
  %7 = alloca i32, align 4
  %8 = alloca i32, align 4
  %9 = alloca i32, align 4
  %10 = alloca i32, align 4
  %11 = alloca i32, align 4
  %12 = alloca [21 x i8], align 16
  %13 = alloca i32, align 4
  store ptr %0, ptr %4, align 8, !tbaa !28
  store ptr %1, ptr %5, align 8, !tbaa !15
  call void @llvm.lifetime.start.p0(i64 4, ptr %6) #10
  call void @llvm.lifetime.start.p0(i64 4, ptr %7) #10
  call void @llvm.lifetime.start.p0(i64 4, ptr %8) #10
  call void @llvm.lifetime.start.p0(i64 4, ptr %9) #10
  call void @llvm.lifetime.start.p0(i64 4, ptr %10) #10
  %14 = load ptr, ptr %5, align 8, !tbaa !15
  %15 = icmp eq ptr %14, null
  br i1 %15, label %21, label %16

16:                                               ; preds = %2
  %17 = load ptr, ptr %5, align 8, !tbaa !15
  %18 = load i32, ptr %17, align 4, !tbaa !24
  %19 = call noundef signext i8 @_ZL9U_FAILURE10UErrorCode(i32 noundef %18)
  %20 = icmp ne i8 %19, 0
  br i1 %20, label %21, label %22

21:                                               ; preds = %16, %2
  store i32 0, ptr %3, align 4
  store i32 1, ptr %11, align 4
  br label %148

22:                                               ; preds = %16
  %23 = load ptr, ptr %4, align 8, !tbaa !28
  %24 = getelementptr inbounds nuw %struct.UCHARBUF, ptr %23, i32 0, i32 1
  %25 = load ptr, ptr %24, align 8, !tbaa !30
  %26 = load ptr, ptr %4, align 8, !tbaa !28
  %27 = getelementptr inbounds nuw %struct.UCHARBUF, ptr %26, i32 0, i32 2
  %28 = load ptr, ptr %27, align 8, !tbaa !32
  %29 = getelementptr inbounds i16, ptr %28, i64 -2
  %30 = icmp uge ptr %25, %29
  br i1 %30, label %31, label %35

31:                                               ; preds = %22
  %32 = load ptr, ptr %4, align 8, !tbaa !28
  %33 = load ptr, ptr %5, align 8, !tbaa !15
  %34 = call noundef ptr @_ZL15ucbuf_fillucbufP8UCHARBUFP10UErrorCode(ptr noundef %32, ptr noundef %33)
  br label %35

35:                                               ; preds = %31, %22
  %36 = load ptr, ptr %4, align 8, !tbaa !28
  %37 = getelementptr inbounds nuw %struct.UCHARBUF, ptr %36, i32 0, i32 1
  %38 = load ptr, ptr %37, align 8, !tbaa !30
  %39 = load ptr, ptr %4, align 8, !tbaa !28
  %40 = getelementptr inbounds nuw %struct.UCHARBUF, ptr %39, i32 0, i32 2
  %41 = load ptr, ptr %40, align 8, !tbaa !32
  %42 = icmp ult ptr %38, %41
  br i1 %42, label %43, label %50

43:                                               ; preds = %35
  %44 = load ptr, ptr %4, align 8, !tbaa !28
  %45 = getelementptr inbounds nuw %struct.UCHARBUF, ptr %44, i32 0, i32 1
  %46 = load ptr, ptr %45, align 8, !tbaa !30
  %47 = getelementptr inbounds nuw i16, ptr %46, i32 1
  store ptr %47, ptr %45, align 8, !tbaa !30
  %48 = load i16, ptr %46, align 2, !tbaa !26
  %49 = zext i16 %48 to i32
  store i32 %49, ptr %9, align 4, !tbaa !16
  br label %51

50:                                               ; preds = %35
  store i32 -1, ptr %9, align 4, !tbaa !16
  br label %51

51:                                               ; preds = %50, %43
  %52 = load ptr, ptr %4, align 8, !tbaa !28
  %53 = getelementptr inbounds nuw %struct.UCHARBUF, ptr %52, i32 0, i32 1
  %54 = load ptr, ptr %53, align 8, !tbaa !30
  %55 = load i16, ptr %54, align 2, !tbaa !26
  %56 = zext i16 %55 to i32
  store i32 %56, ptr %10, align 4, !tbaa !16
  %57 = load i32, ptr %9, align 4, !tbaa !16
  %58 = icmp ne i32 %57, 92
  br i1 %58, label %59, label %61

59:                                               ; preds = %51
  %60 = load i32, ptr %9, align 4, !tbaa !16
  store i32 %60, ptr %3, align 4
  store i32 1, ptr %11, align 4
  br label %148

61:                                               ; preds = %51
  %62 = load ptr, ptr %4, align 8, !tbaa !28
  %63 = getelementptr inbounds nuw %struct.UCHARBUF, ptr %62, i32 0, i32 2
  %64 = load ptr, ptr %63, align 8, !tbaa !32
  %65 = load ptr, ptr %4, align 8, !tbaa !28
  %66 = getelementptr inbounds nuw %struct.UCHARBUF, ptr %65, i32 0, i32 1
  %67 = load ptr, ptr %66, align 8, !tbaa !30
  %68 = ptrtoint ptr %64 to i64
  %69 = ptrtoint ptr %67 to i64
  %70 = sub i64 %68, %69
  %71 = sdiv exact i64 %70, 2
  %72 = trunc i64 %71 to i32
  store i32 %72, ptr %6, align 4, !tbaa !16
  %73 = load i32, ptr %6, align 4, !tbaa !16
  %74 = icmp slt i32 %73, 10
  br i1 %74, label %75, label %90

75:                                               ; preds = %61
  %76 = load ptr, ptr %4, align 8, !tbaa !28
  %77 = load ptr, ptr %5, align 8, !tbaa !15
  %78 = call noundef ptr @_ZL15ucbuf_fillucbufP8UCHARBUFP10UErrorCode(ptr noundef %76, ptr noundef %77)
  %79 = load ptr, ptr %4, align 8, !tbaa !28
  %80 = getelementptr inbounds nuw %struct.UCHARBUF, ptr %79, i32 0, i32 2
  %81 = load ptr, ptr %80, align 8, !tbaa !32
  %82 = load ptr, ptr %4, align 8, !tbaa !28
  %83 = getelementptr inbounds nuw %struct.UCHARBUF, ptr %82, i32 0, i32 0
  %84 = load ptr, ptr %83, align 8, !tbaa !34
  %85 = ptrtoint ptr %81 to i64
  %86 = ptrtoint ptr %84 to i64
  %87 = sub i64 %85, %86
  %88 = sdiv exact i64 %87, 2
  %89 = trunc i64 %88 to i32
  store i32 %89, ptr %6, align 4, !tbaa !16
  br label %90

90:                                               ; preds = %75, %61
  store i32 0, ptr %7, align 4, !tbaa !16
  %91 = load i32, ptr %6, align 4, !tbaa !16
  %92 = load ptr, ptr %4, align 8, !tbaa !28
  %93 = call i32 @u_unescapeAt_77(ptr noundef @_ZL7_charAtiPv, ptr noundef %7, i32 noundef %91, ptr noundef %92)
  store i32 %93, ptr %8, align 4, !tbaa !16
  %94 = load i32, ptr %8, align 4, !tbaa !16
  %95 = icmp eq i32 %94, -1
  br i1 %95, label %96, label %123

96:                                               ; preds = %90
  %97 = load ptr, ptr %4, align 8, !tbaa !28
  %98 = getelementptr inbounds nuw %struct.UCHARBUF, ptr %97, i32 0, i32 8
  %99 = load i8, ptr %98, align 8, !tbaa !40
  %100 = icmp ne i8 %99, 0
  br i1 %100, label %101, label %120

101:                                              ; preds = %96
  call void @llvm.lifetime.start.p0(i64 21, ptr %12) #10
  call void @llvm.lifetime.start.p0(i64 4, ptr %13) #10
  store i32 20, ptr %13, align 4, !tbaa !16
  %102 = load i32, ptr %6, align 4, !tbaa !16
  %103 = load i32, ptr %13, align 4, !tbaa !16
  %104 = icmp slt i32 %102, %103
  br i1 %104, label %105, label %107

105:                                              ; preds = %101
  %106 = load i32, ptr %6, align 4, !tbaa !16
  store i32 %106, ptr %13, align 4, !tbaa !16
  br label %107

107:                                              ; preds = %105, %101
  %108 = load i32, ptr %13, align 4, !tbaa !16
  %109 = sext i32 %108 to i64
  %110 = getelementptr inbounds [21 x i8], ptr %12, i64 0, i64 %109
  store i8 0, ptr %110, align 1, !tbaa !39
  %111 = load ptr, ptr %4, align 8, !tbaa !28
  %112 = getelementptr inbounds nuw %struct.UCHARBUF, ptr %111, i32 0, i32 1
  %113 = load ptr, ptr %112, align 8, !tbaa !30
  %114 = getelementptr inbounds [21 x i8], ptr %12, i64 0, i64 0
  %115 = load i32, ptr %13, align 4, !tbaa !16
  call void @u_UCharsToChars_77(ptr noundef %113, ptr noundef %114, i32 noundef %115)
  %116 = load ptr, ptr @stderr, align 8, !tbaa !41
  %117 = load i32, ptr %9, align 4, !tbaa !16
  %118 = getelementptr inbounds [21 x i8], ptr %12, i64 0, i64 0
  %119 = call i32 (ptr, ptr, ...) @fprintf(ptr noundef %116, ptr noundef @.str.1, i32 noundef %117, ptr noundef %118) #10
  call void @llvm.lifetime.end.p0(i64 4, ptr %13) #10
  call void @llvm.lifetime.end.p0(i64 21, ptr %12) #10
  br label %120

120:                                              ; preds = %107, %96
  %121 = load ptr, ptr %5, align 8, !tbaa !15
  store i32 18, ptr %121, align 4, !tbaa !24
  %122 = load i32, ptr %9, align 4, !tbaa !16
  store i32 %122, ptr %3, align 4
  store i32 1, ptr %11, align 4
  br label %148

123:                                              ; preds = %90
  %124 = load i32, ptr %8, align 4, !tbaa !16
  %125 = load i32, ptr %10, align 4, !tbaa !16
  %126 = icmp ne i32 %124, %125
  br i1 %126, label %136, label %127

127:                                              ; preds = %123
  %128 = load i32, ptr %8, align 4, !tbaa !16
  %129 = icmp eq i32 %128, 117
  br i1 %129, label %130, label %143

130:                                              ; preds = %127
  %131 = load i32, ptr %10, align 4, !tbaa !16
  %132 = icmp eq i32 %131, 117
  br i1 %132, label %133, label %143

133:                                              ; preds = %130
  %134 = load i32, ptr %9, align 4, !tbaa !16
  %135 = icmp eq i32 %134, 92
  br i1 %135, label %136, label %143

136:                                              ; preds = %133, %123
  %137 = load i32, ptr %7, align 4, !tbaa !16
  %138 = load ptr, ptr %4, align 8, !tbaa !28
  %139 = getelementptr inbounds nuw %struct.UCHARBUF, ptr %138, i32 0, i32 1
  %140 = load ptr, ptr %139, align 8, !tbaa !30
  %141 = sext i32 %137 to i64
  %142 = getelementptr inbounds i16, ptr %140, i64 %141
  store ptr %142, ptr %139, align 8, !tbaa !30
  br label %145

143:                                              ; preds = %133, %130, %127
  %144 = load i32, ptr %9, align 4, !tbaa !16
  store i32 %144, ptr %3, align 4
  store i32 1, ptr %11, align 4
  br label %148

145:                                              ; preds = %136
  br label %146

146:                                              ; preds = %145
  %147 = load i32, ptr %8, align 4, !tbaa !16
  store i32 %147, ptr %3, align 4
  store i32 1, ptr %11, align 4
  br label %148

148:                                              ; preds = %146, %143, %120, %59, %21
  call void @llvm.lifetime.end.p0(i64 4, ptr %10) #10
  call void @llvm.lifetime.end.p0(i64 4, ptr %9) #10
  call void @llvm.lifetime.end.p0(i64 4, ptr %8) #10
  call void @llvm.lifetime.end.p0(i64 4, ptr %7) #10
  call void @llvm.lifetime.end.p0(i64 4, ptr %6) #10
  %149 = load i32, ptr %3, align 4
  ret i32 %149
}