; Function Attrs: mustprogress uwtable
define i32 @ucbuf_getcx32(ptr noundef %0, ptr noundef %1) local_unnamed_addr #0 {
  %3 = alloca i32, align 4
  %4 = alloca [21 x i8], align 16
  call void @llvm.lifetime.start.p0(i64 4, ptr nonnull %3) #15
  %5 = icmp eq ptr %1, null
  br i1 %5, label %.thread, label %6

6:                                                ; preds = %2
  %7 = load i32, ptr %1, align 4, !tbaa !14
  %8 = icmp slt i32 %7, 1
  br i1 %8, label %9, label %.thread

9:                                                ; preds = %6
  %10 = getelementptr inbounds nuw i8, ptr %0, i64 8
  %11 = load ptr, ptr %10, align 8, !tbaa !16
  %12 = getelementptr inbounds nuw i8, ptr %0, i64 16
  %13 = load ptr, ptr %12, align 8, !tbaa !19
  %14 = getelementptr inbounds i8, ptr %13, i64 -4
  %.not51 = icmp ult ptr %11, %14
  br i1 %.not51, label %17, label %15

15:                                               ; preds = %9
  %16 = tail call fastcc noundef ptr @_ZL15ucbuf_fillucbufP8UCHARBUFP10UErrorCode(ptr noundef nonnull %0, ptr noundef nonnull %1)
  %.pre = load ptr, ptr %10, align 8, !tbaa !16
  %.pre57 = load ptr, ptr %12, align 8, !tbaa !19
  br label %17

17:                                               ; preds = %15, %9
  %18 = phi ptr [ %.pre57, %15 ], [ %13, %9 ]
  %19 = phi ptr [ %.pre, %15 ], [ %11, %9 ]
  %20 = icmp ult ptr %19, %18
  br i1 %20, label %21, label %.thread

21:                                               ; preds = %17
  %22 = getelementptr inbounds nuw i8, ptr %19, i64 2
  store ptr %22, ptr %10, align 8, !tbaa !16
  %23 = load i16, ptr %19, align 2, !tbaa !21
  %24 = zext i16 %23 to i32
  %25 = load i16, ptr %22, align 2, !tbaa !21
  %26 = zext i16 %25 to i32
  %.not52 = icmp eq i16 %23, 92
  br i1 %.not52, label %27, label %.thread

27:                                               ; preds = %21
  %28 = ptrtoint ptr %18 to i64
  %29 = ptrtoint ptr %22 to i64
  %30 = sub i64 %28, %29
  %31 = lshr exact i64 %30, 1
  %32 = trunc i64 %31 to i32
  %33 = icmp slt i32 %32, 10
  br i1 %33, label %34, label %43

34:                                               ; preds = %27
  %35 = tail call fastcc noundef ptr @_ZL15ucbuf_fillucbufP8UCHARBUFP10UErrorCode(ptr noundef nonnull %0, ptr noundef nonnull %1)
  %36 = load ptr, ptr %12, align 8, !tbaa !19
  %37 = load ptr, ptr %0, align 8, !tbaa !23
  %38 = ptrtoint ptr %36 to i64
  %39 = ptrtoint ptr %37 to i64
  %40 = sub i64 %38, %39
  %41 = lshr exact i64 %40, 1
  %42 = trunc i64 %41 to i32
  br label %43

43:                                               ; preds = %34, %27
  %.045 = phi i32 [ %42, %34 ], [ %32, %27 ]
  store i32 0, ptr %3, align 4, !tbaa !8
  %44 = call i32 @u_unescapeAt_77(ptr noundef nonnull @_ZL7_charAtiPv, ptr noundef nonnull %3, i32 noundef %.045, ptr noundef nonnull %0)
  %45 = icmp eq i32 %44, -1
  br i1 %45, label %46, label %56

46:                                               ; preds = %43
  %47 = getelementptr inbounds nuw i8, ptr %0, i64 56
  %48 = load i8, ptr %47, align 8, !tbaa !29
  %.not54 = icmp eq i8 %48, 0
  br i1 %.not54, label %55, label %49

49:                                               ; preds = %46
  call void @llvm.lifetime.start.p0(i64 21, ptr nonnull %4) #15
  %spec.select = call i32 @llvm.smin.i32(i32 %.045, i32 20)
  %50 = sext i32 %spec.select to i64
  %51 = getelementptr inbounds [21 x i8], ptr %4, i64 0, i64 %50
  store i8 0, ptr %51, align 1, !tbaa !28
  %52 = load ptr, ptr %10, align 8, !tbaa !16
  call void @u_UCharsToChars_77(ptr noundef %52, ptr noundef nonnull %4, i32 noundef %spec.select)
  %53 = load ptr, ptr @stderr, align 8, !tbaa !30
  %54 = call i32 (ptr, ptr, ...) @fprintf(ptr noundef %53, ptr noundef nonnull @.str.1, i32 noundef 92, ptr noundef nonnull %4) #17
  call void @llvm.lifetime.end.p0(i64 21, ptr nonnull %4) #15
  br label %55

55:                                               ; preds = %49, %46
  store i32 18, ptr %1, align 4, !tbaa !14
  br label %.thread

56:                                               ; preds = %43
  %.not53 = icmp ne i32 %44, %26
  %57 = icmp eq i16 %25, 117
  %or.cond = or i1 %.not53, %57
  br i1 %or.cond, label %58, label %.thread

58:                                               ; preds = %56
  %59 = load i32, ptr %3, align 4, !tbaa !8
  %60 = load ptr, ptr %10, align 8, !tbaa !16
  %61 = sext i32 %59 to i64
  %62 = getelementptr inbounds i16, ptr %60, i64 %61
  store ptr %62, ptr %10, align 8, !tbaa !16
  br label %.thread

.thread:                                          ; preds = %56, %17, %21, %2, %6, %58, %55
  %.043 = phi i32 [ 92, %55 ], [ %44, %58 ], [ 0, %6 ], [ 0, %2 ], [ %24, %21 ], [ -1, %17 ], [ 92, %56 ]
  call void @llvm.lifetime.end.p0(i64 4, ptr nonnull %3) #15
  ret i32 %.043
}